target datalayout = "e-m:e-p270:32:32-p271:32:32-p272:64:64-i64:64-i128:128-f80:128-n8:16:32:64-S128"
target triple = "x86_64-pc-linux-gnu"

%struct.H5S_t = type { %struct.H5S_extent_t, %struct.H5S_select_t }
%struct.H5S_extent_t = type { %struct.H5O_shared_t, i32, i32, i64, i32, ptr, ptr }
%struct.H5O_shared_t = type { i32, ptr, i32, %union.anon }
%union.anon = type { %struct.H5O_mesg_loc_t }
%struct.H5O_mesg_loc_t = type { i32, i64 }
%struct.H5S_select_t = type { ptr, i8, [32 x i64], i64, %union.anon.0 }
%union.anon.0 = type { ptr }
%struct.H5S_pnt_list_t = type { [32 x i64], [32 x i64], ptr, ptr, i64, ptr }
%struct.H5S_pnt_node_t = type { ptr, [0 x i64] }

@H5S_init_g = external global i8, align 1
@H5_libterm_g = external global i8, align 1

; Function Attrs: nounwind uwtable
define internal i32 @H5S__point_intersect_block(ptr noundef %0, ptr noundef %1, ptr noundef %2) #0 {
  %4 = alloca i32, align 4
  %5 = alloca ptr, align 8
  %6 = alloca ptr, align 8
  %7 = alloca ptr, align 8
  %8 = alloca ptr, align 8
  %9 = alloca i32, align 4
  %10 = alloca i32, align 4
  %11 = alloca i32, align 4
  store ptr %0, ptr %5, align 8, !tbaa !3
  store ptr %1, ptr %6, align 8, !tbaa !51
  store ptr %2, ptr %7, align 8, !tbaa !51
  call void @llvm.lifetime.start.p0(i64 8, ptr %8) #7
  call void @llvm.lifetime.start.p0(i64 4, ptr %9) #7
  store i32 0, ptr %9, align 4, !tbaa !10
  %12 = load i8, ptr @H5S_init_g, align 1, !tbaa !8, !range !12, !noundef !13
  %13 = trunc i8 %12 to i1
  br i1 %13, label %18, label %14

14:                                               ; preds = %3
  %15 = load i8, ptr @H5_libterm_g, align 1, !tbaa !8, !range !12, !noundef !13
  %16 = trunc i8 %15 to i1
  %17 = xor i1 %16, true
  br label %18

18:                                               ; preds = %14, %3
  %19 = phi i1 [ true, %3 ], [ %17, %14 ]
  %20 = xor i1 %19, true
  %21 = xor i1 %20, true
  %22 = zext i1 %21 to i32
  %23 = sext i32 %22 to i64
  %24 = call i64 @llvm.expect.i64(i64 %23, i64 1)
  %25 = icmp ne i64 %24, 0
  br i1 %25, label %26, label %95

26:                                               ; preds = %18
  %27 = load ptr, ptr %5, align 8, !tbaa !3
  %28 = getelementptr inbounds nuw %struct.H5S_t, ptr %27, i32 0, i32 1
  %29 = getelementptr inbounds nuw %struct.H5S_select_t, ptr %28, i32 0, i32 4
  %30 = load ptr, ptr %29, align 8, !tbaa !14
  %31 = getelementptr inbounds nuw %struct.H5S_pnt_list_t, ptr %30, i32 0, i32 2
  %32 = load ptr, ptr %31, align 8, !tbaa !35
  store ptr %32, ptr %8, align 8, !tbaa !38
  br label %33

33:                                               ; preds = %92, %26
  %34 = load ptr, ptr %8, align 8, !tbaa !38
  %35 = icmp ne ptr %34, null
  br i1 %35, label %36, label %93

36:                                               ; preds = %33
  call void @llvm.lifetime.start.p0(i64 4, ptr %10) #7
  store i32 0, ptr %10, align 4, !tbaa !10
  br label %37

37:                                               ; preds = %72, %36
  %38 = load i32, ptr %10, align 4, !tbaa !10
  %39 = load ptr, ptr %5, align 8, !tbaa !3
  %40 = getelementptr inbounds nuw %struct.H5S_t, ptr %39, i32 0, i32 0
  %41 = getelementptr inbounds nuw %struct.H5S_extent_t, ptr %40, i32 0, i32 4
  %42 = load i32, ptr %41, align 8, !tbaa !15
  %43 = icmp ult i32 %38, %42
  br i1 %43, label %44, label %75

44:                                               ; preds = %37
  %45 = load ptr, ptr %8, align 8, !tbaa !38
  %46 = getelementptr inbounds nuw %struct.H5S_pnt_node_t, ptr %45, i32 0, i32 1
  %47 = load i32, ptr %10, align 4, !tbaa !10
  %48 = zext i32 %47 to i64
  %49 = getelementptr inbounds nuw [0 x i64], ptr %46, i64 0, i64 %48
  %50 = load i64, ptr %49, align 8, !tbaa !23
  %51 = load ptr, ptr %6, align 8, !tbaa !51
  %52 = load i32, ptr %10, align 4, !tbaa !10
  %53 = zext i32 %52 to i64
  %54 = getelementptr inbounds nuw i64, ptr %51, i64 %53
  %55 = load i64, ptr %54, align 8, !tbaa !23
  %56 = icmp ult i64 %50, %55
  br i1 %56, label %70, label %57

57:                                               ; preds = %44
  %58 = load ptr, ptr %8, align 8, !tbaa !38
  %59 = getelementptr inbounds nuw %struct.H5S_pnt_node_t, ptr %58, i32 0, i32 1
  %60 = load i32, ptr %10, align 4, !tbaa !10
  %61 = zext i32 %60 to i64
  %62 = getelementptr inbounds nuw [0 x i64], ptr %59, i64 0, i64 %61
  %63 = load i64, ptr %62, align 8, !tbaa !23
  %64 = load ptr, ptr %7, align 8, !tbaa !51
  %65 = load i32, ptr %10, align 4, !tbaa !10
  %66 = zext i32 %65 to i64
  %67 = getelementptr inbounds nuw i64, ptr %64, i64 %66
  %68 = load i64, ptr %67, align 8, !tbaa !23
  %69 = icmp ugt i64 %63, %68
  br i1 %69, label %70, label %71

70:                                               ; preds = %57, %44
  br label %75

71:                                               ; preds = %57
  br label %72

72:                                               ; preds = %71
  %73 = load i32, ptr %10, align 4, !tbaa !10
  %74 = add i32 %73, 1
  store i32 %74, ptr %10, align 4, !tbaa !10
  br label %37, !llvm.loop !63

75:                                               ; preds = %70, %37
  %76 = load i32, ptr %10, align 4, !tbaa !10
  %77 = load ptr, ptr %5, align 8, !tbaa !3
  %78 = getelementptr inbounds nuw %struct.H5S_t, ptr %77, i32 0, i32 0
  %79 = getelementptr inbounds nuw %struct.H5S_extent_t, ptr %78, i32 0, i32 4
  %80 = load i32, ptr %79, align 8, !tbaa !15
  %81 = icmp eq i32 %76, %80
  br i1 %81, label %82, label %86

82:                                               ; preds = %75
  br label %83

83:                                               ; preds = %82
  store i32 1, ptr %9, align 4, !tbaa !10
  store i32 9, ptr %11, align 4
  br label %90

84:                                               ; No predecessors!
  br label %85

85:                                               ; preds = %84
  br label %86

86:                                               ; preds = %85, %75
  %87 = load ptr, ptr %8, align 8, !tbaa !38
  %88 = getelementptr inbounds nuw %struct.H5S_pnt_node_t, ptr %87, i32 0, i32 0
  %89 = load ptr, ptr %88, align 8, !tbaa !38
  store ptr %89, ptr %8, align 8, !tbaa !38
  store i32 0, ptr %11, align 4
  br label %90

90:                                               ; preds = %83, %86
  call void @llvm.lifetime.end.p0(i64 4, ptr %10) #7
  %91 = load i32, ptr %11, align 4
  switch i32 %91, label %97 [
    i32 0, label %92
    i32 9, label %94
  ]

92:                                               ; preds = %90
  br label %33, !llvm.loop !64

93:                                               ; preds = %33
  br label %94

94:                                               ; preds = %93, %90
  br label %95

95:                                               ; preds = %94, %18
  %96 = load i32, ptr %9, align 4, !tbaa !10
  store i32 %96, ptr %4, align 4
  store i32 1, ptr %11, align 4
  br label %97

97:                                               ; preds = %95, %90
  call void @llvm.lifetime.end.p0(i64 4, ptr %9) #7
  call void @llvm.lifetime.end.p0(i64 8, ptr %8) #7
  %98 = load i32, ptr %4, align 4
  ret i32 %98
}