; Function Attrs: nofree norecurse nosync nounwind memory(read, inaccessiblemem: none) uwtable
define internal range(i32 0, 2) i32 @H5S__point_intersect_block(ptr noundef readonly captures(none) %0, ptr noundef readonly captures(none) %1, ptr noundef readonly captures(none) %2) #1 {
  %4 = load i8, ptr @H5S_init_g, align 1, !tbaa !3, !range !7, !noundef !8
  %5 = trunc nuw i8 %4 to i1
  %6 = load i8, ptr @H5_libterm_g, align 1, !range !7
  %7 = trunc nuw i8 %6 to i1
  %8 = xor i1 %7, true
  %9 = select i1 %5, i1 true, i1 %8
  br i1 %9, label %10, label %.thread, !prof !9

10:                                               ; preds = %3
  %11 = getelementptr inbounds nuw i8, ptr %0, i64 360
  %12 = load ptr, ptr %11, align 8, !tbaa !10
  %13 = getelementptr inbounds nuw i8, ptr %12, i64 512
  %14 = getelementptr inbounds nuw i8, ptr %0, i64 56
  br label %15

15:                                               ; preds = %._crit_edge, %10
  %.020.in = phi ptr [ %13, %10 ], [ %.020, %._crit_edge ]
  %.020 = load ptr, ptr %.020.in, align 8, !tbaa !25
  %.not = icmp eq ptr %.020, null
  br i1 %.not, label %.thread, label %.preheader

.preheader:                                       ; preds = %15
  %16 = getelementptr inbounds nuw i8, ptr %.020, i64 8
  %17 = load i32, ptr %14, align 8, !tbaa !11
  %.not36 = icmp eq i32 %17, 0
  br i1 %.not36, label %._crit_edge, label %.lr.ph.preheader

.lr.ph.preheader:                                 ; preds = %.preheader
  %wide.trip.count = zext i32 %17 to i64
  br label %.lr.ph

.lr.ph:                                           ; preds = %.lr.ph.preheader, %27
  %indvars.iv = phi i64 [ 0, %.lr.ph.preheader ], [ %indvars.iv.next, %27 ]
  %18 = getelementptr inbounds nuw [0 x i64], ptr %16, i64 0, i64 %indvars.iv
  %19 = load i64, ptr %18, align 8, !tbaa !21
  %20 = getelementptr inbounds nuw i64, ptr %1, i64 %indvars.iv
  %21 = load i64, ptr %20, align 8, !tbaa !21
  %22 = icmp ult i64 %19, %21
  br i1 %22, label %._crit_edge.loopexit, label %23

23:                                               ; preds = %.lr.ph
  %24 = getelementptr inbounds nuw i64, ptr %2, i64 %indvars.iv
  %25 = load i64, ptr %24, align 8, !tbaa !21
  %26 = icmp ugt i64 %19, %25
  br i1 %26, label %._crit_edge.loopexit, label %27

27:                                               ; preds = %23
  %indvars.iv.next = add nuw nsw i64 %indvars.iv, 1
  %exitcond.not = icmp eq i64 %indvars.iv.next, %wide.trip.count
  br i1 %exitcond.not, label %.thread, label %.lr.ph, !llvm.loop !57

._crit_edge.loopexit:                             ; preds = %.lr.ph, %23
  %28 = trunc nuw i64 %indvars.iv to i32
  br label %._crit_edge

._crit_edge:                                      ; preds = %._crit_edge.loopexit, %.preheader
  %.018.lcssa = phi i32 [ 0, %.preheader ], [ %28, %._crit_edge.loopexit ]
  %29 = icmp eq i32 %.018.lcssa, %17
  br i1 %29, label %.thread, label %15

.thread:                                          ; preds = %._crit_edge, %15, %27, %3
  %.022 = phi i32 [ 0, %3 ], [ 1, %27 ], [ 1, %._crit_edge ], [ 0, %15 ]
  ret i32 %.022
}